target datalayout = "e-m:e-p270:32:32-p271:32:32-p272:64:64-i64:64-i128:128-f80:128-n8:16:32:64-S128"
target triple = "x86_64-pc-linux-gnu"

%struct.PHP_TIGER_CTX = type { [3 x i64], i64, [64 x i8], i32, i8 }

; Function Attrs: inlinehint nounwind uwtable
define internal void @TigerDigest(ptr noundef %0, i32 noundef %1, ptr noundef %2) #5 {
  %4 = alloca ptr, align 8
  %5 = alloca i32, align 4
  %6 = alloca ptr, align 8
  %7 = alloca i32, align 4
  store ptr %0, ptr %4, align 8, !tbaa !12
  store i32 %1, ptr %5, align 4, !tbaa !17
  store ptr %2, ptr %6, align 8, !tbaa !4
  call void @llvm.lifetime.start.p0(i64 4, ptr %7) #7
  store i32 0, ptr %7, align 4, !tbaa !17
  br label %8

8:                                                ; preds = %31, %3
  %9 = load i32, ptr %7, align 4, !tbaa !17
  %10 = load i32, ptr %5, align 4, !tbaa !17
  %11 = icmp ult i32 %9, %10
  br i1 %11, label %12, label %34

12:                                               ; preds = %8
  %13 = load ptr, ptr %6, align 8, !tbaa !4
  %14 = getelementptr inbounds nuw %struct.PHP_TIGER_CTX, ptr %13, i32 0, i32 0
  %15 = load i32, ptr %7, align 4, !tbaa !17
  %16 = udiv i32 %15, 8
  %17 = zext i32 %16 to i64
  %18 = getelementptr inbounds nuw [3 x i64], ptr %14, i64 0, i64 %17
  %19 = load i64, ptr %18, align 8, !tbaa !10
  %20 = load i32, ptr %7, align 4, !tbaa !17
  %21 = urem i32 %20, 8
  %22 = mul i32 8, %21
  %23 = zext i32 %22 to i64
  %24 = lshr i64 %19, %23
  %25 = and i64 %24, 255
  %26 = trunc i64 %25 to i8
  %27 = load ptr, ptr %4, align 8, !tbaa !12
  %28 = load i32, ptr %7, align 4, !tbaa !17
  %29 = zext i32 %28 to i64
  %30 = getelementptr inbounds nuw i8, ptr %27, i64 %29
  store i8 %26, ptr %30, align 1, !tbaa !19
  br label %31

31:                                               ; preds = %12
  %32 = load i32, ptr %7, align 4, !tbaa !17
  %33 = add i32 %32, 1
  store i32 %33, ptr %7, align 4, !tbaa !17
  br label %8

34:                                               ; preds = %8
  call void @llvm.lifetime.end.p0(i64 4, ptr %7) #7
  ret void
}

; Function Attrs: nounwind uwtable
define dso_local void @PHP_TIGER192Final(ptr noundef %0, ptr noundef %1) #0 {
  %3 = alloca ptr, align 8
  %4 = alloca ptr, align 8
  store ptr %0, ptr %3, align 8, !tbaa !12
  store ptr %1, ptr %4, align 8, !tbaa !4
  %5 = load ptr, ptr %4, align 8, !tbaa !4
  call void @TigerFinalize(ptr noundef %5)
  %6 = load ptr, ptr %3, align 8, !tbaa !12
  %7 = load ptr, ptr %4, align 8, !tbaa !4
  call void @TigerDigest(ptr noundef %6, i32 noundef 24, ptr noundef %7)
  %8 = load ptr, ptr %4, align 8, !tbaa !4
  call void @explicit_bzero(ptr noundef %8, i64 noundef 104) #7
  ret void
}