; Function Attrs: nounwind uwtable
define dso_local void @PHP_TIGER192Final(ptr noundef writeonly captures(none) %0, ptr noundef %1) #2 {
  tail call fastcc void @TigerFinalize(ptr noundef %1)
  br label %3

3:                                                ; preds = %3, %2
  %indvars.iv.i = phi i64 [ 0, %2 ], [ %indvars.iv.next.i, %3 ]
  %4 = lshr i64 %indvars.iv.i, 3
  %5 = and i64 %4, 536870911
  %6 = getelementptr inbounds nuw [3 x i64], ptr %1, i64 0, i64 %5
  %7 = load i64, ptr %6, align 8, !tbaa !4
  %8 = shl i64 %indvars.iv.i, 3
  %9 = and i64 %8, 56
  %10 = lshr i64 %7, %9
  %11 = trunc i64 %10 to i8
  %12 = getelementptr inbounds nuw i8, ptr %0, i64 %indvars.iv.i
  store i8 %11, ptr %12, align 1, !tbaa !12
  %indvars.iv.next.i = add nuw nsw i64 %indvars.iv.i, 1
  %exitcond.not.i = icmp eq i64 %indvars.iv.next.i, 24
  br i1 %exitcond.not.i, label %TigerDigest.exit, label %3

TigerDigest.exit:                                 ; preds = %3
  tail call void @explicit_bzero(ptr noundef nonnull %1, i64 noundef 104) #7
  ret void
}